; Function Attrs: mustprogress uwtable
define hidden void @_ZN4cvc58internal18PreRegisterVisitorC2ERNS0_3EnvEPNS0_12TheoryEngineE(ptr noundef nonnull align 8 dereferenceable(136) %0, ptr noundef nonnull align 8 dereferenceable(696) %1, ptr noundef %2) unnamed_addr #4 align 2 personality ptr @__gxx_personality_v0 {
  tail call void @_ZN4cvc58internal6EnvObjC2ERNS0_3EnvE(ptr noundef nonnull align 8 dereferenceable(16) %0, ptr noundef nonnull align 8 dereferenceable(696) %1)
  store ptr getelementptr inbounds nuw inrange(-16, 16) (i8, ptr @_ZTVN4cvc58internal18PreRegisterVisitorE, i64 16), ptr %0, align 8, !tbaa !36
  %4 = getelementptr inbounds nuw i8, ptr %0, i64 16
  store ptr %2, ptr %4, align 8, !tbaa !84
  %5 = tail call noundef ptr @_ZNK4cvc58internal6EnvObj7contextEv(ptr noundef nonnull align 8 dereferenceable(16) %0)
  %6 = getelementptr inbounds nuw i8, ptr %0, i64 24
  tail call void @_ZN4cvc57context10ContextObjC2EPNS0_7ContextE(ptr noundef nonnull align 8 dereferenceable(112) %6, ptr noundef %5)
  store ptr getelementptr inbounds nuw inrange(-16, 32) (i8, ptr @_ZTVN4cvc57context9CDHashMapINS_8internal12NodeTemplateILb0EEEjSt4hashIS4_EEE, i64 16), ptr %6, align 8, !tbaa !36
  %7 = getelementptr inbounds nuw i8, ptr %0, i64 64
  %8 = getelementptr inbounds nuw i8, ptr %0, i64 96
  store i64 0, ptr %8, align 8
  %9 = getelementptr inbounds nuw i8, ptr %0, i64 112
  store ptr %9, ptr %7, align 8, !tbaa !89
  %10 = getelementptr inbounds nuw i8, ptr %0, i64 72
  store i64 1, ptr %10, align 8, !tbaa !90
  %11 = getelementptr inbounds nuw i8, ptr %0, i64 80
  tail call void @llvm.memset.p0.i64(ptr noundef nonnull align 8 dereferenceable(16) %11, i8 0, i64 16, i1 false)
  store float 1.000000e+00, ptr %8, align 8, !tbaa !91
  %12 = getelementptr inbounds nuw i8, ptr %0, i64 104
  %13 = getelementptr inbounds nuw i8, ptr %0, i64 128
  tail call void @llvm.memset.p0.i64(ptr noundef nonnull align 8 dereferenceable(24) %12, i8 0, i64 24, i1 false)
  store ptr %5, ptr %13, align 8, !tbaa !92
  ret void
}